; Function Attrs: mustprogress uwtable
define void @_Z14grpc_cq_end_opP21grpc_completion_queuePvN4absl12lts_202407226StatusEPFvS1_P18grpc_cq_completionES1_S6_b(ptr noundef %0, ptr noundef %1, ptr noundef readonly captures(none) %2, ptr noundef %3, ptr noundef %4, ptr noundef %5, i1 noundef zeroext %6) local_unnamed_addr #8 personality ptr @__gxx_personality_v0 {
  %8 = alloca %"class.absl::lts_20240722::Status", align 8
  %9 = getelementptr inbounds nuw i8, ptr %0, i64 144
  %10 = load ptr, ptr %9, align 8, !tbaa !48
  %11 = getelementptr inbounds nuw i8, ptr %10, i64 48
  %12 = load ptr, ptr %11, align 8, !tbaa !94
  %13 = load i64, ptr %2, align 8, !tbaa !95
  store i64 %13, ptr %8, align 8, !tbaa !95
  %14 = and i64 %13, 1
  %.not.i.i = icmp eq i64 %14, 0
  br i1 %.not.i.i, label %15, label %_ZN4absl12lts_202407226StatusC2ERKS1_.exit

15:                                               ; preds = %7
  %16 = inttoptr i64 %13 to ptr
  %17 = atomicrmw add ptr %16, i32 1 monotonic, align 4
  br label %_ZN4absl12lts_202407226StatusC2ERKS1_.exit

_ZN4absl12lts_202407226StatusC2ERKS1_.exit:       ; preds = %7, %15
  invoke void %12(ptr noundef nonnull %0, ptr noundef %1, ptr noundef nonnull %8, ptr noundef %3, ptr noundef %4, ptr noundef %5, i1 noundef zeroext %6)
          to label %18 unwind label %26

18:                                               ; preds = %_ZN4absl12lts_202407226StatusC2ERKS1_.exit
  %19 = load i64, ptr %8, align 8, !tbaa !95
  %20 = and i64 %19, 1
  %.not.i.i8 = icmp eq i64 %20, 0
  br i1 %.not.i.i8, label %21, label %_ZN4absl12lts_202407226StatusD2Ev.exit

21:                                               ; preds = %18
  %22 = inttoptr i64 %19 to ptr
  invoke void @_ZNK4absl12lts_2024072215status_internal9StatusRep5UnrefEv(ptr noundef nonnull align 8 dereferenceable(48) %22)
          to label %_ZN4absl12lts_202407226StatusD2Ev.exit unwind label %23

23:                                               ; preds = %21
  %24 = landingpad { ptr, i32 }
          catch ptr null
  %25 = extractvalue { ptr, i32 } %24, 0
  call void @__clang_call_terminate(ptr %25) #37
  unreachable

_ZN4absl12lts_202407226StatusD2Ev.exit:           ; preds = %18, %21
  ret void

26:                                               ; preds = %_ZN4absl12lts_202407226StatusC2ERKS1_.exit
  %27 = landingpad { ptr, i32 }
          cleanup
  call void @_ZN4absl12lts_202407226StatusD2Ev(ptr noundef nonnull align 8 dereferenceable(8) %8) #36
  resume { ptr, i32 } %27
}